; ModuleID = '54/954.c'
source_filename = "54/954.c"
target datalayout = "e-m:e-p270:32:32-p271:32:32-p272:64:64-i64:64-f80:128-n8:16:32:64-S128"
target triple = "x86_64-pc-linux-gnu"

@.str = private unnamed_addr constant [6 x i8] c"%d %d\00", align 1
@.str.1 = private unnamed_addr constant [3 x i8] c"%d\00", align 1

; Function Attrs: noinline nounwind uwtable
define dso_local void @main() #0 {
  %1 = alloca i32, align 4
  %2 = alloca i32, align 4
  %3 = alloca i32, align 4
  %4 = alloca i32, align 4
  %5 = alloca i32, align 4
  %6 = call i32 (i8*, ...) @__isoc99_scanf(i8* getelementptr inbounds ([6 x i8], [6 x i8]* @.str, i64 0, i64 0), i32* %1, i32* %4)
  store i32 2, i32* %2, align 4
  br label %7

7:                                                ; preds = %37, %0
  %8 = load i32, i32* %3, align 4
  %9 = load i32, i32* %1, align 4
  %10 = icmp ne i32 %8, %9
  br i1 %10, label %11, label %40

11:                                               ; preds = %7
  %12 = load i32, i32* %2, align 4
  store i32 %12, i32* %5, align 4
  store i32 0, i32* %3, align 4
  br label %13

13:                                               ; preds = %33, %11
  %14 = load i32, i32* %3, align 4
  %15 = load i32, i32* %1, align 4
  %16 = icmp slt i32 %14, %15
  br i1 %16, label %17, label %36

17:                                               ; preds = %13
  %18 = load i32, i32* %5, align 4
  %19 = load i32, i32* %1, align 4
  %20 = sub nsw i32 %19, 1
  %21 = srem i32 %18, %20
  %22 = icmp eq i32 %21, 0
  br i1 %22, label %23, label %32

23:                                               ; preds = %17
  %24 = load i32, i32* %5, align 4
  %25 = load i32, i32* %1, align 4
  %26 = mul nsw i32 %24, %25
  %27 = load i32, i32* %1, align 4
  %28 = sub nsw i32 %27, 1
  %29 = sdiv i32 %26, %28
  %30 = load i32, i32* %4, align 4
  %31 = add nsw i32 %29, %30
  store i32 %31, i32* %5, align 4
  br label %33

32:                                               ; preds = %17
  br label %36

33:                                               ; preds = %23
  %34 = load i32, i32* %3, align 4
  %35 = add nsw i32 %34, 1
  store i32 %35, i32* %3, align 4
  br label %13

36:                                               ; preds = %32, %13
  br label %37

37:                                               ; preds = %36
  %38 = load i32, i32* %2, align 4
  %39 = add nsw i32 %38, 1
  store i32 %39, i32* %2, align 4
  br label %7

40:                                               ; preds = %7
  %41 = load i32, i32* %5, align 4
  %42 = call i32 (i8*, ...) @printf(i8* getelementptr inbounds ([3 x i8], [3 x i8]* @.str.1, i64 0, i64 0), i32 %41)
  ret void
}

declare dso_local i32 @__isoc99_scanf(i8*, ...) #1

declare dso_local i32 @printf(i8*, ...) #1


!llvm.module.flags = !{!0}
!llvm.ident = !{!1}

!0 = !{i32 1, !"wchar_size", i32 4}
!1 = !{!"clang version 10.0.0-4ubuntu1 "}
